; Function Attrs: nounwind uwtable
define internal noundef i32 @batch_object_cb(ptr noundef readonly captures(none) %0, ptr noundef readonly captures(none) %1) #0 {
  %3 = getelementptr inbounds nuw i8, ptr %1, i64 8
  %4 = load ptr, ptr %3, align 8, !tbaa !66
  tail call void @llvm.memcpy.p0.p0.i64(ptr noundef nonnull align 4 dereferenceable(32) %4, ptr noundef nonnull readonly align 4 dereferenceable(32) %0, i64 32, i1 false)
  %5 = getelementptr inbounds nuw i8, ptr %0, i64 32
  %6 = load i32, ptr %5, align 4, !tbaa !101
  %7 = getelementptr inbounds nuw i8, ptr %4, i64 32
  store i32 %6, ptr %7, align 4, !tbaa !101
  %8 = getelementptr inbounds nuw i8, ptr %1, i64 24
  %9 = load ptr, ptr %8, align 8, !tbaa !67
  %10 = load ptr, ptr %1, align 8, !tbaa !61
  %11 = load ptr, ptr %3, align 8, !tbaa !66
  tail call fastcc void @batch_object_write(ptr noundef null, ptr noundef %9, ptr noundef %10, ptr noundef %11, ptr noundef null, i64 noundef 0)
  ret i32 0
}